; Function Attrs: null_pointer_is_valid sspstrong uwtable
define internal i32 @dissect_s1ap_TAC(ptr noundef %0, i32 noundef %1, ptr noundef %2, ptr noundef %3, i32 noundef %4) #0 {
  %6 = alloca ptr, align 8
  call void @llvm.lifetime.start.p0(i64 8, ptr nonnull %6) #8
  store ptr null, ptr %6, align 8
  %7 = getelementptr inbounds nuw i8, ptr %2, i64 16
  %8 = load ptr, ptr %7, align 8
  %9 = getelementptr inbounds nuw i8, ptr %8, i64 408
  %10 = load ptr, ptr %9, align 8
  %11 = load i32, ptr @proto_s1ap, align 4
  %12 = tail call ptr @p_get_proto_data(ptr noundef %10, ptr noundef %8, i32 noundef %11, i32 noundef 0)
  %.not.i = icmp eq ptr %12, null
  br i1 %.not.i, label %13, label %s1ap_get_private_data.exit

13:                                               ; preds = %5
  %14 = load ptr, ptr %9, align 8
  %15 = tail call noalias dereferenceable_or_null(64) ptr @wmem_alloc0(ptr noundef %14, i64 noundef 64) #9
  %16 = load ptr, ptr %9, align 8
  %17 = load i32, ptr @proto_s1ap, align 4
  tail call void @p_add_proto_data(ptr noundef %16, ptr noundef %8, i32 noundef %17, i32 noundef 0, ptr noundef %15)
  br label %s1ap_get_private_data.exit

s1ap_get_private_data.exit:                       ; preds = %5, %13
  %.0.i = phi ptr [ %12, %5 ], [ %15, %13 ]
  %18 = call i32 @dissect_per_octet_string(ptr noundef %0, i32 noundef %1, ptr noundef %2, ptr noundef %3, i32 noundef -1, i32 noundef 2, i32 noundef 2, i1 noundef zeroext false, ptr noundef nonnull %6)
  %19 = load ptr, ptr %6, align 8
  %.not = icmp eq ptr %19, null
  br i1 %.not, label %37, label %20

20:                                               ; preds = %s1ap_get_private_data.exit
  %21 = call ptr @proto_tree_add_item(ptr noundef %3, i32 noundef %4, ptr noundef nonnull %19, i32 noundef 0, i32 noundef 2, i32 noundef 0)
  %22 = getelementptr inbounds nuw i8, ptr %2, i64 24
  store ptr %21, ptr %22, align 8
  %23 = getelementptr inbounds nuw i8, ptr %.0.i, i64 32
  %24 = load ptr, ptr %23, align 8
  %.not12 = icmp eq ptr %24, null
  br i1 %.not12, label %29, label %25

25:                                               ; preds = %20
  %26 = load ptr, ptr %6, align 8
  %27 = call zeroext i16 @tvb_get_ntohs(ptr noundef %26, i32 noundef 0)
  %28 = load ptr, ptr %23, align 8
  store i16 %27, ptr %28, align 8
  br label %37

29:                                               ; preds = %20
  %30 = getelementptr inbounds nuw i8, ptr %.0.i, i64 48
  %31 = load ptr, ptr %30, align 8
  %.not13 = icmp eq ptr %31, null
  br i1 %.not13, label %37, label %32

32:                                               ; preds = %29
  %33 = load ptr, ptr %6, align 8
  %34 = call zeroext i16 @tvb_get_ntohs(ptr noundef %33, i32 noundef 0)
  %35 = load ptr, ptr %30, align 8
  %36 = getelementptr inbounds nuw i8, ptr %35, i64 4
  store i16 %34, ptr %36, align 4
  br label %37

37:                                               ; preds = %25, %32, %29, %s1ap_get_private_data.exit
  call void @llvm.lifetime.end.p0(i64 8, ptr nonnull %6) #8
  ret i32 %18
}